; Function Attrs: mustprogress nounwind optsize uwtable
define internal fastcc void @_ZNSt6vectorIS_IZL38nanobind_init_test_stl_bind_vector_extRN8nanobind7module_EE2ElSaIS3_EESaIS5_EE15_M_erase_at_endEPS5_(ptr noundef nonnull align 8 captures(none) dereferenceable(24) %0, ptr noundef %1) unnamed_addr #7 align 2 personality ptr @__gxx_personality_v0 {
  %3 = getelementptr inbounds nuw i8, ptr %0, i64 8
  %4 = load ptr, ptr %3, align 8, !tbaa !324
  %.not = icmp eq ptr %4, %1
  br i1 %.not, label %11, label %.lr.ph.i.i.i

.lr.ph.i.i.i:                                     ; preds = %2, %_ZSt8_DestroyISt6vectorIZL38nanobind_init_test_stl_bind_vector_extRN8nanobind7module_EE2ElSaIS4_EEEvPT_.exit.i.i.i
  %.06.i.i.i = phi ptr [ %10, %_ZSt8_DestroyISt6vectorIZL38nanobind_init_test_stl_bind_vector_extRN8nanobind7module_EE2ElSaIS4_EEEvPT_.exit.i.i.i ], [ %1, %2 ]
  %.0.val.i.i.i = load ptr, ptr %.06.i.i.i, align 8
  %.not.i.i.i.i.i.i.i = icmp eq ptr %.0.val.i.i.i, null
  br i1 %.not.i.i.i.i.i.i.i, label %_ZSt8_DestroyISt6vectorIZL38nanobind_init_test_stl_bind_vector_extRN8nanobind7module_EE2ElSaIS4_EEEvPT_.exit.i.i.i, label %5

5:                                                ; preds = %.lr.ph.i.i.i
  %6 = getelementptr i8, ptr %.06.i.i.i, i64 16
  %.0.val4.i.i.i = load ptr, ptr %6, align 8
  %7 = ptrtoint ptr %.0.val4.i.i.i to i64
  %8 = ptrtoint ptr %.0.val.i.i.i to i64
  %9 = sub i64 %7, %8
  tail call void @_ZdlPvm(ptr noundef nonnull %.0.val.i.i.i, i64 noundef %9) #29
  br label %_ZSt8_DestroyISt6vectorIZL38nanobind_init_test_stl_bind_vector_extRN8nanobind7module_EE2ElSaIS4_EEEvPT_.exit.i.i.i

_ZSt8_DestroyISt6vectorIZL38nanobind_init_test_stl_bind_vector_extRN8nanobind7module_EE2ElSaIS4_EEEvPT_.exit.i.i.i: ; preds = %5, %.lr.ph.i.i.i
  %10 = getelementptr inbounds nuw i8, ptr %.06.i.i.i, i64 24
  %.not.i.i.i = icmp eq ptr %10, %4
  br i1 %.not.i.i.i, label %_ZSt8_DestroyIPSt6vectorIZL38nanobind_init_test_stl_bind_vector_extRN8nanobind7module_EE2ElSaIS4_EES6_EvT_S8_RSaIT0_E.exit, label %.lr.ph.i.i.i, !llvm.loop !326

_ZSt8_DestroyIPSt6vectorIZL38nanobind_init_test_stl_bind_vector_extRN8nanobind7module_EE2ElSaIS4_EES6_EvT_S8_RSaIT0_E.exit: ; preds = %_ZSt8_DestroyISt6vectorIZL38nanobind_init_test_stl_bind_vector_extRN8nanobind7module_EE2ElSaIS4_EEEvPT_.exit.i.i.i
  store ptr %1, ptr %3, align 8, !tbaa !324
  br label %11

11:                                               ; preds = %_ZSt8_DestroyIPSt6vectorIZL38nanobind_init_test_stl_bind_vector_extRN8nanobind7module_EE2ElSaIS4_EES6_EvT_S8_RSaIT0_E.exit, %2
  ret void
}